; Function Attrs: mustprogress uwtable
define noundef i32 @_ZNK7mitsuba9ArgParser3Arg6as_intEv(ptr noundef nonnull align 8 dereferenceable(64) %0) local_unnamed_addr #0 align 2 personality ptr @__gxx_personality_v0 {
  %2 = alloca ptr, align 8
  %3 = alloca %"class.std::__1::basic_string", align 8
  %4 = getelementptr inbounds i8, ptr %0, i64 40
  %5 = load i8, ptr %4, align 8
  %6 = and i8 %5, 1
  %.not.i.i = icmp eq i8 %6, 0
  %7 = getelementptr inbounds i8, ptr %0, i64 56
  %8 = load ptr, ptr %7, align 8
  %9 = getelementptr inbounds i8, ptr %0, i64 41
  %10 = select i1 %.not.i.i, ptr %9, ptr %8
  store ptr %10, ptr %2, align 8
  %11 = getelementptr inbounds i8, ptr %0, i64 48
  %12 = load i64, ptr %11, align 8
  %13 = lshr i8 %5, 1
  %14 = zext nneg i8 %13 to i64
  %15 = select i1 %.not.i.i, i64 %14, i64 %12
  %16 = getelementptr inbounds i8, ptr %10, i64 %15
  %17 = call i64 @strtol(ptr noundef %10, ptr noundef nonnull %2, i32 noundef 10) #18
  %18 = load ptr, ptr %2, align 8
  %.not = icmp eq ptr %18, %16
  br i1 %.not, label %25, label %19

19:                                               ; preds = %1
  %20 = load ptr, ptr @_ZN7mitsuba7m_classE, align 8
  %21 = load ptr, ptr %0, align 8
  call void @_ZN10tinyformat6formatIJNSt3__112basic_stringIcNS1_11char_traitsIcEENS1_9allocatorIcEEEES7_EEES7_PKcDpRKT_(ptr dead_on_unwind nonnull writable sret(%"class.std::__1::basic_string") align 8 %3, ptr noundef nonnull @.str.1, ptr noundef nonnull align 8 dereferenceable(24) %21, ptr noundef nonnull align 8 dereferenceable(24) %4)
  invoke void @_ZN7mitsuba6detail5ThrowENS_8LogLevelEPKNS_5ClassEPKciRKNSt3__112basic_stringIcNS7_11char_traitsIcEENS7_9allocatorIcEEEE(i32 noundef 400, ptr noundef %20, ptr noundef nonnull @.str, i32 noundef 33, ptr noundef nonnull align 8 dereferenceable(24) %3) #19
          to label %22 unwind label %23

22:                                               ; preds = %19
  unreachable

23:                                               ; preds = %19
  %24 = landingpad { ptr, i32 }
          cleanup
  call void @_ZNSt3__112basic_stringIcNS_11char_traitsIcEENS_9allocatorIcEEED1Ev(ptr noundef nonnull align 8 dereferenceable(24) %3) #18
  resume { ptr, i32 } %24

25:                                               ; preds = %1
  %26 = trunc i64 %17 to i32
  ret i32 %26
}